target datalayout = "e-m:e-p270:32:32-p271:32:32-p272:64:64-i64:64-i128:128-f80:128-n8:16:32:64-S128"
target triple = "x86_64-unknown-linux-gnu"

%"class.icu_75::UObject" = type { ptr }
%"class.icu_75::AlphabeticIndex::ImmutableIndex" = type { %"class.icu_75::UObject", ptr, ptr }

; Function Attrs: mustprogress nounwind uwtable
define void @_ZN6icu_7515AlphabeticIndex14ImmutableIndexD2Ev(ptr noundef nonnull align 8 dereferenceable(24) %this) unnamed_addr #0 align 2 {
entry:
  %this.addr = alloca ptr, align 8
  store ptr %this, ptr %this.addr, align 8
  %this1 = load ptr, ptr %this.addr, align 8
  store ptr getelementptr inbounds ({ [5 x ptr] }, ptr @_ZTVN6icu_7515AlphabeticIndex14ImmutableIndexE, i32 0, i32 0, i32 2), ptr %this1, align 8
  %buckets_ = getelementptr inbounds %"class.icu_75::AlphabeticIndex::ImmutableIndex", ptr %this1, i32 0, i32 1
  %0 = load ptr, ptr %buckets_, align 8
  %isnull = icmp eq ptr %0, null
  br i1 %isnull, label %delete.end, label %delete.notnull

delete.notnull:                                   ; preds = %entry
  %vtable = load ptr, ptr %0, align 8
  %vfn = getelementptr inbounds ptr, ptr %vtable, i64 1
  %1 = load ptr, ptr %vfn, align 8
  call void %1(ptr noundef nonnull align 8 dereferenceable(24) %0) #7
  br label %delete.end

delete.end:                                       ; preds = %delete.notnull, %entry
  %collatorPrimaryOnly_ = getelementptr inbounds %"class.icu_75::AlphabeticIndex::ImmutableIndex", ptr %this1, i32 0, i32 2
  %2 = load ptr, ptr %collatorPrimaryOnly_, align 8
  %isnull2 = icmp eq ptr %2, null
  br i1 %isnull2, label %delete.end6, label %delete.notnull3

delete.notnull3:                                  ; preds = %delete.end
  %vtable4 = load ptr, ptr %2, align 8
  %vfn5 = getelementptr inbounds ptr, ptr %vtable4, i64 1
  %3 = load ptr, ptr %vfn5, align 8
  call void %3(ptr noundef nonnull align 8 dereferenceable(8) %2) #7
  br label %delete.end6

delete.end6:                                      ; preds = %delete.notnull3, %delete.end
  call void @_ZN6icu_757UObjectD2Ev(ptr noundef nonnull align 8 dereferenceable(8) %this1) #7
  ret void
}